; Function Attrs: mustprogress nounwind uwtable
define void @_ZN5boost6fibers4algo11shared_work6notifyEv(ptr noundef nonnull align 8 dereferenceable(122) %0) unnamed_addr #3 align 2 personality ptr @__gxx_personality_v0 {
  %2 = getelementptr inbounds nuw i8, ptr %0, i64 121
  %3 = load i8, ptr %2, align 1, !tbaa !63, !range !75, !noundef !76
  %4 = trunc nuw i8 %3 to i1
  br i1 %4, label %5, label %12

5:                                                ; preds = %1
  %6 = getelementptr inbounds nuw i8, ptr %0, i64 32
  %7 = tail call noundef i32 @pthread_mutex_lock(ptr noundef nonnull align 8 dereferenceable(40) %6) #16
  %.not.i.i.i = icmp eq i32 %7, 0
  br i1 %.not.i.i.i, label %_ZNSt11unique_lockISt5mutexED2Ev.exit, label %8

8:                                                ; preds = %5
  invoke void @_ZSt20__throw_system_errori(i32 noundef %7) #17
          to label %.noexc unwind label %13

.noexc:                                           ; preds = %8
  unreachable

_ZNSt11unique_lockISt5mutexED2Ev.exit:            ; preds = %5
  %9 = getelementptr inbounds nuw i8, ptr %0, i64 120
  store i8 1, ptr %9, align 8, !tbaa !81
  %10 = tail call noundef i32 @pthread_mutex_unlock(ptr noundef nonnull align 8 dereferenceable(40) %6) #16
  %11 = getelementptr inbounds nuw i8, ptr %0, i64 72
  tail call void @_ZNSt18condition_variable10notify_allEv(ptr noundef nonnull align 8 dereferenceable(48) %11) #16
  br label %12

12:                                               ; preds = %_ZNSt11unique_lockISt5mutexED2Ev.exit, %1
  ret void

13:                                               ; preds = %8
  %14 = landingpad { ptr, i32 }
          catch ptr null
  %15 = extractvalue { ptr, i32 } %14, 0
  tail call void @__clang_call_terminate(ptr %15) #18
  unreachable
}